target datalayout = "e-m:e-p270:32:32-p271:32:32-p272:64:64-i64:64-i128:128-f80:128-n8:16:32:64-S128"
target triple = "x86_64-pc-linux-gnu"

%struct.construct_data_st = type { ptr, ptr, i32, i32, ptr, ptr }

@.str = private unnamed_addr constant [31 x i8] c"../openssl/crypto/core_fetch.c\00", align 1
@__func__.ossl_method_construct_precondition = private unnamed_addr constant [35 x i8] c"ossl_method_construct_precondition\00", align 1

; Function Attrs: nounwind uwtable
define internal i32 @is_temporary_method_store(i32 noundef %0, ptr noundef %1) #0 {
  %3 = alloca i32, align 4
  %4 = alloca ptr, align 8
  %5 = alloca ptr, align 8
  store i32 %0, ptr %3, align 4, !tbaa !8
  store ptr %1, ptr %4, align 8, !tbaa !14
  call void @llvm.lifetime.start.p0(i64 8, ptr %5) #4
  %6 = load ptr, ptr %4, align 8, !tbaa !14
  store ptr %6, ptr %5, align 8, !tbaa !27
  %7 = load i32, ptr %3, align 4, !tbaa !8
  %8 = icmp ne i32 %7, 0
  br i1 %8, label %9, label %15

9:                                                ; preds = %2
  %10 = load ptr, ptr %5, align 8, !tbaa !27
  %11 = getelementptr inbounds nuw %struct.construct_data_st, ptr %10, i32 0, i32 3
  %12 = load i32, ptr %11, align 4, !tbaa !20
  %13 = icmp ne i32 %12, 0
  %14 = xor i1 %13, true
  br label %15

15:                                               ; preds = %9, %2
  %16 = phi i1 [ false, %2 ], [ %14, %9 ]
  %17 = zext i1 %16 to i32
  call void @llvm.lifetime.end.p0(i64 8, ptr %5) #4
  ret i32 %17
}

; Function Attrs: nounwind uwtable
define internal i32 @ossl_method_construct_precondition(ptr noundef %0, i32 noundef %1, i32 noundef %2, ptr noundef %3, ptr noundef %4) #0 {
  %6 = alloca i32, align 4
  %7 = alloca ptr, align 8
  %8 = alloca i32, align 4
  %9 = alloca i32, align 4
  %10 = alloca ptr, align 8
  %11 = alloca ptr, align 8
  store ptr %0, ptr %7, align 8, !tbaa !15
  store i32 %1, ptr %8, align 4, !tbaa !8
  store i32 %2, ptr %9, align 4, !tbaa !8
  store ptr %3, ptr %10, align 8, !tbaa !14
  store ptr %4, ptr %11, align 8, !tbaa !25
  %12 = load ptr, ptr %11, align 8, !tbaa !25
  %13 = icmp ne ptr %12, null
  %14 = zext i1 %13 to i32
  %15 = icmp ne i32 %14, 0
  %16 = xor i1 %15, true
  %17 = xor i1 %16, true
  %18 = zext i1 %17 to i32
  %19 = sext i32 %18 to i64
  %20 = call i64 @llvm.expect.i64(i64 %19, i64 1)
  %21 = icmp ne i64 %20, 0
  br i1 %21, label %23, label %22

22:                                               ; preds = %5
  call void @ERR_new()
  call void @ERR_set_debug(ptr noundef @.str, i32 noundef 65, ptr noundef @__func__.ossl_method_construct_precondition)
  call void (i32, i32, ptr, ...) @ERR_set_error(i32 noundef 15, i32 noundef 786690, ptr noundef null)
  store i32 0, ptr %6, align 4
  br label %44

23:                                               ; preds = %5
  %24 = load ptr, ptr %11, align 8, !tbaa !25
  store i32 0, ptr %24, align 4, !tbaa !8
  %25 = load i32, ptr %9, align 4, !tbaa !8
  %26 = load ptr, ptr %10, align 8, !tbaa !14
  %27 = call i32 @is_temporary_method_store(i32 noundef %25, ptr noundef %26)
  %28 = icmp ne i32 %27, 0
  br i1 %28, label %37, label %29

29:                                               ; preds = %23
  %30 = load ptr, ptr %7, align 8, !tbaa !15
  %31 = load i32, ptr %8, align 4, !tbaa !8
  %32 = sext i32 %31 to i64
  %33 = load ptr, ptr %11, align 8, !tbaa !25
  %34 = call i32 @ossl_provider_test_operation_bit(ptr noundef %30, i64 noundef %32, ptr noundef %33)
  %35 = icmp ne i32 %34, 0
  br i1 %35, label %37, label %36

36:                                               ; preds = %29
  store i32 0, ptr %6, align 4
  br label %44

37:                                               ; preds = %29, %23
  %38 = load ptr, ptr %11, align 8, !tbaa !25
  %39 = load i32, ptr %38, align 4, !tbaa !8
  %40 = icmp ne i32 %39, 0
  %41 = xor i1 %40, true
  %42 = zext i1 %41 to i32
  %43 = load ptr, ptr %11, align 8, !tbaa !25
  store i32 %42, ptr %43, align 4, !tbaa !8
  store i32 1, ptr %6, align 4
  br label %44

44:                                               ; preds = %37, %36, %22
  %45 = load i32, ptr %6, align 4
  ret i32 %45
}