; Function Attrs: nounwind uwtable
define internal range(i32 0, 2) i32 @ossl_method_construct_precondition(ptr noundef %0, i32 noundef %1, i32 noundef %2, ptr noundef readonly captures(none) %3, ptr noundef %4) #0 {
  %.not = icmp eq ptr %4, null
  br i1 %.not, label %6, label %7, !prof !19

6:                                                ; preds = %5
  tail call void @ERR_new() #3
  tail call void @ERR_set_debug(ptr noundef nonnull @.str, i32 noundef 65, ptr noundef nonnull @__func__.ossl_method_construct_precondition) #3
  tail call void (i32, i32, ptr, ...) @ERR_set_error(i32 noundef 15, i32 noundef 786690, ptr noundef null) #3
  br label %15

7:                                                ; preds = %5
  store i32 0, ptr %4, align 4, !tbaa !20
  %.not.i = icmp eq i32 %2, 0
  br i1 %.not.i, label %is_temporary_method_store.exit.thread, label %is_temporary_method_store.exit

is_temporary_method_store.exit:                   ; preds = %7
  %8 = getelementptr inbounds nuw i8, ptr %3, i64 20
  %9 = load i32, ptr %8, align 4, !tbaa !14
  %.not2.i.not = icmp eq i32 %9, 0
  br i1 %.not2.i.not, label %14, label %is_temporary_method_store.exit.thread

is_temporary_method_store.exit.thread:            ; preds = %7, %is_temporary_method_store.exit
  %10 = sext i32 %1 to i64
  %11 = tail call i32 @ossl_provider_test_operation_bit(ptr noundef %0, i64 noundef %10, ptr noundef nonnull %4) #3
  %.not11 = icmp eq i32 %11, 0
  br i1 %.not11, label %15, label %is_temporary_method_store.exit.thread._crit_edge

is_temporary_method_store.exit.thread._crit_edge: ; preds = %is_temporary_method_store.exit.thread
  %.pre = load i32, ptr %4, align 4, !tbaa !20
  %12 = icmp eq i32 %.pre, 0
  %13 = zext i1 %12 to i32
  br label %14

14:                                               ; preds = %is_temporary_method_store.exit.thread._crit_edge, %is_temporary_method_store.exit
  %.not12 = phi i32 [ %13, %is_temporary_method_store.exit.thread._crit_edge ], [ 1, %is_temporary_method_store.exit ]
  store i32 %.not12, ptr %4, align 4, !tbaa !20
  br label %15

15:                                               ; preds = %is_temporary_method_store.exit.thread, %14, %6
  %.0 = phi i32 [ 1, %14 ], [ 0, %6 ], [ 0, %is_temporary_method_store.exit.thread ]
  ret i32 %.0
}